; Function Attrs: mustprogress nofree norecurse nosync nounwind willreturn memory(argmem: readwrite) uwtable
define void @_ZNK7rocksdb3Env19OptimizeForLogWriteERKNS_10EnvOptionsERKNS_9DBOptionsE(ptr dead_on_unwind noalias writable writeonly sret(%"struct.rocksdb::EnvOptions") align 8 captures(none) initializes((0, 48)) %0, ptr nonnull readnone align 8 captures(none) %1, ptr noundef nonnull readonly align 8 captures(none) dereferenceable(48) %2, ptr noundef nonnull readonly align 8 captures(none) dereferenceable(706) %3) unnamed_addr #11 align 2 {
  tail call void @llvm.memcpy.p0.p0.i64(ptr noundef nonnull align 8 dereferenceable(48) %0, ptr noundef nonnull align 8 dereferenceable(48) %2, i64 48, i1 false), !tbaa.struct !236
  %5 = getelementptr inbounds nuw i8, ptr %3, i64 400
  %6 = load i64, ptr %5, align 8, !tbaa !238
  %7 = getelementptr inbounds nuw i8, ptr %0, i64 8
  store i64 %6, ptr %7, align 8, !tbaa !276
  %8 = getelementptr inbounds nuw i8, ptr %3, i64 376
  %9 = load i64, ptr %8, align 8, !tbaa !277
  %10 = getelementptr inbounds nuw i8, ptr %0, i64 32
  store i64 %9, ptr %10, align 8, !tbaa !99
  ret void
}